target datalayout = "e-m:e-p270:32:32-p271:32:32-p272:64:64-i64:64-i128:128-f80:128-n8:16:32:64-S128"
target triple = "x86_64-pc-linux-gnu"

; Function Attrs: nounwind uwtable
define dso_local i64 @strbuf_read_file(ptr noundef %0, ptr noundef %1, i64 noundef %2) #0 {
  %4 = alloca i64, align 8
  %5 = alloca ptr, align 8
  %6 = alloca ptr, align 8
  %7 = alloca i64, align 8
  %8 = alloca i32, align 4
  %9 = alloca i64, align 8
  %10 = alloca i32, align 4
  %11 = alloca i32, align 4
  store ptr %0, ptr %5, align 8, !tbaa !18
  store ptr %1, ptr %6, align 8, !tbaa !4
  store i64 %2, ptr %7, align 8, !tbaa !12
  call void @llvm.lifetime.start.p0(i64 4, ptr %8) #11
  call void @llvm.lifetime.start.p0(i64 8, ptr %9) #11
  call void @llvm.lifetime.start.p0(i64 4, ptr %10) #11
  %12 = load ptr, ptr %6, align 8, !tbaa !4
  %13 = call i32 (ptr, i32, ...) @open64(ptr noundef %12, i32 noundef 0)
  store i32 %13, ptr %8, align 4, !tbaa !10
  %14 = load i32, ptr %8, align 4, !tbaa !10
  %15 = icmp slt i32 %14, 0
  br i1 %15, label %16, label %17

16:                                               ; preds = %3
  store i64 -1, ptr %4, align 8
  store i32 1, ptr %11, align 4
  br label %33

17:                                               ; preds = %3
  %18 = load ptr, ptr %5, align 8, !tbaa !18
  %19 = load i32, ptr %8, align 4, !tbaa !10
  %20 = load i64, ptr %7, align 8, !tbaa !12
  %21 = call i64 @strbuf_read(ptr noundef %18, i32 noundef %19, i64 noundef %20)
  store i64 %21, ptr %9, align 8, !tbaa !12
  %22 = call ptr @__errno_location() #14
  %23 = load i32, ptr %22, align 4, !tbaa !10
  store i32 %23, ptr %10, align 4, !tbaa !10
  %24 = load i32, ptr %8, align 4, !tbaa !10
  %25 = call i32 @close(i32 noundef %24)
  %26 = load i64, ptr %9, align 8, !tbaa !12
  %27 = icmp slt i64 %26, 0
  br i1 %27, label %28, label %31

28:                                               ; preds = %17
  %29 = load i32, ptr %10, align 4, !tbaa !10
  %30 = call ptr @__errno_location() #14
  store i32 %29, ptr %30, align 4, !tbaa !10
  store i64 -1, ptr %4, align 8
  store i32 1, ptr %11, align 4
  br label %33

31:                                               ; preds = %17
  %32 = load i64, ptr %9, align 8, !tbaa !12
  store i64 %32, ptr %4, align 8
  store i32 1, ptr %11, align 4
  br label %33

33:                                               ; preds = %31, %28, %16
  call void @llvm.lifetime.end.p0(i64 4, ptr %10) #11
  call void @llvm.lifetime.end.p0(i64 8, ptr %9) #11
  call void @llvm.lifetime.end.p0(i64 4, ptr %8) #11
  %34 = load i64, ptr %4, align 8
  ret i64 %34
}