; Function Attrs: nounwind uwtable
define dso_local range(i64 -1, -9223372036854775808) i64 @strbuf_read_file(ptr noundef captures(none) %0, ptr noundef readonly captures(none) %1, i64 noundef %2) local_unnamed_addr #3 {
  %4 = tail call i32 (ptr, i32, ...) @open64(ptr noundef %1, i32 noundef 0) #25
  %5 = icmp slt i32 %4, 0
  br i1 %5, label %13, label %6

6:                                                ; preds = %3
  %7 = tail call i64 @strbuf_read(ptr noundef %0, i32 noundef %4, i64 noundef %2)
  %8 = tail call ptr @__errno_location() #27
  %9 = load i32, ptr %8, align 4, !tbaa !33
  %10 = tail call i32 @close(i32 noundef %4) #25
  %11 = icmp slt i64 %7, 0
  br i1 %11, label %12, label %13

12:                                               ; preds = %6
  store i32 %9, ptr %8, align 4, !tbaa !33
  br label %13

13:                                               ; preds = %6, %3, %12
  %.0 = phi i64 [ -1, %12 ], [ -1, %3 ], [ %7, %6 ]
  ret i64 %.0
}